target datalayout = "e-m:e-p270:32:32-p271:32:32-p272:64:64-i64:64-i128:128-f80:128-n8:16:32:64-S128"
target triple = "x86_64-pc-linux-gnu"

%struct._zval_struct = type { %union._zend_value, %union.anon, %union.anon.2 }
%union._zend_value = type { i64 }
%union.anon = type { i32 }
%union.anon.2 = type { i32 }

; Function Attrs: nounwind uwtable
define internal i32 @zval_call_destructor(ptr noundef %0) #0 {
  %2 = alloca ptr, align 8
  %3 = alloca ptr, align 8
  %4 = alloca ptr, align 8
  %5 = alloca ptr, align 8
  %6 = alloca i32, align 4
  %7 = alloca ptr, align 8
  store ptr %0, ptr %7, align 8
  %8 = load ptr, ptr %7, align 8
  store ptr %8, ptr %4, align 8
  %9 = load ptr, ptr %4, align 8
  %10 = getelementptr inbounds %struct._zval_struct, ptr %9, i32 0, i32 1
  %11 = load i8, ptr %10, align 8
  %12 = zext i8 %11 to i32
  %13 = icmp eq i32 %12, 12
  br i1 %13, label %14, label %18

14:                                               ; preds = %1
  %15 = load ptr, ptr %7, align 8
  %16 = getelementptr inbounds %struct._zval_struct, ptr %15, i32 0, i32 0
  %17 = load ptr, ptr %16, align 8
  store ptr %17, ptr %7, align 8
  br label %18

18:                                               ; preds = %14, %1
  %19 = load ptr, ptr %7, align 8
  store ptr %19, ptr %5, align 8
  %20 = load ptr, ptr %5, align 8
  %21 = getelementptr inbounds %struct._zval_struct, ptr %20, i32 0, i32 1
  %22 = load i8, ptr %21, align 8
  %23 = zext i8 %22 to i32
  %24 = icmp eq i32 %23, 8
  br i1 %24, label %25, label %33

25:                                               ; preds = %18
  %26 = load ptr, ptr %7, align 8
  store ptr %26, ptr %3, align 8
  %27 = load ptr, ptr %3, align 8
  %28 = load ptr, ptr %27, align 8
  store ptr %28, ptr %2, align 8
  %29 = load ptr, ptr %2, align 8
  %30 = load i32, ptr %29, align 4
  %31 = icmp eq i32 %30, 1
  br i1 %31, label %32, label %33

32:                                               ; preds = %25
  store i32 1, ptr %6, align 4
  br label %34

33:                                               ; preds = %25, %18
  store i32 0, ptr %6, align 4
  br label %34

34:                                               ; preds = %33, %32
  %35 = load i32, ptr %6, align 4
  ret i32 %35
}