; Function Attrs: mustprogress nofree norecurse nosync nounwind willreturn memory(read, inaccessiblemem: none) uwtable
define internal noundef i32 @zval_call_destructor(ptr nocapture noundef readonly %0) #4 {
  %2 = getelementptr inbounds i8, ptr %0, i64 8
  %3 = load i8, ptr %2, align 8
  %4 = icmp eq i8 %3, 12
  br i1 %4, label %5, label %7

5:                                                ; preds = %1
  %6 = load ptr, ptr %0, align 8
  %.phi.trans.insert = getelementptr inbounds i8, ptr %6, i64 8
  %.pre = load i8, ptr %.phi.trans.insert, align 8
  br label %7

7:                                                ; preds = %5, %1
  %8 = phi i8 [ %.pre, %5 ], [ %3, %1 ]
  %.0 = phi ptr [ %6, %5 ], [ %0, %1 ]
  %9 = icmp eq i8 %8, 8
  br i1 %9, label %10, label %14

10:                                               ; preds = %7
  %11 = load ptr, ptr %.0, align 8
  %12 = load i32, ptr %11, align 4
  %13 = icmp eq i32 %12, 1
  br i1 %13, label %15, label %14

14:                                               ; preds = %10, %7
  br label %15

15:                                               ; preds = %10, %14
  %.08 = phi i32 [ 0, %14 ], [ 1, %10 ]
  ret i32 %.08
}